target datalayout = "e-m:e-p270:32:32-p271:32:32-p272:64:64-i64:64-i128:128-f80:128-n8:16:32:64-S128"
target triple = "x86_64-pc-linux-gnu"

%class.BCEscapeAnalyzer = type <{ ptr, i8, [7 x i8], ptr, ptr, i32, [4 x i8], %class.VectorSet, %class.VectorSet, %class.VectorSet, ptr, i8, i8, i8, i8, [4 x i8], %class.GrowableArray, ptr, ptr, i32, [4 x i8] }>
%class.VectorSet = type { i32, ptr, i32, ptr }
%class.GrowableArray = type { %class.GrowableArrayWithAllocator, %class.GrowableArrayMetadata }
%class.GrowableArrayWithAllocator = type { %class.GrowableArrayView }
%class.GrowableArrayView = type { %class.GrowableArrayBase, ptr }
%class.GrowableArrayBase = type { i32, i32 }
%class.GrowableArrayMetadata = type { i64 }

; Function Attrs: mustprogress nounwind uwtable
define linkonce_odr hidden void @_ZN9VectorSet3setEj(ptr noundef nonnull align 8 dereferenceable(32) %0, i32 noundef %1) #1 comdat align 2 {
  %3 = alloca ptr, align 8
  %4 = alloca i32, align 4
  %5 = alloca i32, align 4
  %6 = alloca i32, align 4
  store ptr %0, ptr %3, align 8
  store i32 %1, ptr %4, align 4
  %7 = load ptr, ptr %3, align 8
  %8 = load i32, ptr %4, align 4
  %9 = lshr i32 %8, 5
  store i32 %9, ptr %5, align 4
  %10 = load i32, ptr %5, align 4
  %11 = getelementptr inbounds %class.VectorSet, ptr %7, i32 0, i32 0
  %12 = load i32, ptr %11, align 8
  %13 = icmp uge i32 %10, %12
  br i1 %13, label %14, label %16

14:                                               ; preds = %2
  %15 = load i32, ptr %5, align 4
  call void @_ZN9VectorSet4growEj(ptr noundef nonnull align 8 dereferenceable(32) %7, i32 noundef %15)
  br label %16

16:                                               ; preds = %14, %2
  %17 = load i32, ptr %4, align 4
  %18 = and i32 %17, 31
  %19 = shl i32 1, %18
  store i32 %19, ptr %6, align 4
  %20 = load i32, ptr %6, align 4
  %21 = getelementptr inbounds %class.VectorSet, ptr %7, i32 0, i32 1
  %22 = load ptr, ptr %21, align 8
  %23 = load i32, ptr %5, align 4
  %24 = zext i32 %23 to i64
  %25 = getelementptr inbounds i32, ptr %22, i64 %24
  %26 = load i32, ptr %25, align 4
  %27 = or i32 %26, %20
  store i32 %27, ptr %25, align 4
  ret void
}

; Function Attrs: mustprogress nounwind uwtable
define linkonce_odr hidden noundef ptr @_ZNK16BCEscapeAnalyzer10methodDataEv(ptr noundef nonnull align 8 dereferenceable(196) %0) #1 comdat align 2 {
  %2 = alloca ptr, align 8
  store ptr %0, ptr %2, align 8
  %3 = load ptr, ptr %2, align 8
  %4 = getelementptr inbounds %class.BCEscapeAnalyzer, ptr %3, i32 0, i32 4
  %5 = load ptr, ptr %4, align 8
  ret ptr %5
}

; Function Attrs: mustprogress nounwind uwtable
define hidden void @_ZN16BCEscapeAnalyzer16read_escape_infoEv(ptr noundef nonnull align 8 dereferenceable(196) %0) #1 align 2 {
  %2 = alloca ptr, align 8
  %3 = alloca i32, align 4
  store ptr %0, ptr %2, align 8
  %4 = load ptr, ptr %2, align 8
  store i32 0, ptr %3, align 4
  br label %5

5:                                                ; preds = %40, %1
  %6 = load i32, ptr %3, align 4
  %7 = getelementptr inbounds %class.BCEscapeAnalyzer, ptr %4, i32 0, i32 5
  %8 = load i32, ptr %7, align 8
  %9 = icmp slt i32 %6, %8
  br i1 %9, label %10, label %43

10:                                               ; preds = %5
  %11 = call noundef ptr @_ZNK16BCEscapeAnalyzer10methodDataEv(ptr noundef nonnull align 8 dereferenceable(196) %4)
  %12 = load i32, ptr %3, align 4
  %13 = call noundef zeroext i1 @_ZNK12ciMethodData12is_arg_localEi(ptr noundef nonnull align 8 dereferenceable(176) %11, i32 noundef %12)
  br i1 %13, label %14, label %17

14:                                               ; preds = %10
  %15 = getelementptr inbounds %class.BCEscapeAnalyzer, ptr %4, i32 0, i32 7
  %16 = load i32, ptr %3, align 4
  call void @_ZN9VectorSet3setEj(ptr noundef nonnull align 8 dereferenceable(32) %15, i32 noundef %16)
  br label %17

17:                                               ; preds = %14, %10
  %18 = call noundef ptr @_ZNK16BCEscapeAnalyzer10methodDataEv(ptr noundef nonnull align 8 dereferenceable(196) %4)
  %19 = load i32, ptr %3, align 4
  %20 = call noundef zeroext i1 @_ZNK12ciMethodData12is_arg_stackEi(ptr noundef nonnull align 8 dereferenceable(176) %18, i32 noundef %19)
  br i1 %20, label %21, label %24

21:                                               ; preds = %17
  %22 = getelementptr inbounds %class.BCEscapeAnalyzer, ptr %4, i32 0, i32 8
  %23 = load i32, ptr %3, align 4
  call void @_ZN9VectorSet3setEj(ptr noundef nonnull align 8 dereferenceable(32) %22, i32 noundef %23)
  br label %24

24:                                               ; preds = %21, %17
  %25 = call noundef ptr @_ZNK16BCEscapeAnalyzer10methodDataEv(ptr noundef nonnull align 8 dereferenceable(196) %4)
  %26 = load i32, ptr %3, align 4
  %27 = call noundef zeroext i1 @_ZNK12ciMethodData15is_arg_returnedEi(ptr noundef nonnull align 8 dereferenceable(176) %25, i32 noundef %26)
  br i1 %27, label %28, label %31

28:                                               ; preds = %24
  %29 = getelementptr inbounds %class.BCEscapeAnalyzer, ptr %4, i32 0, i32 9
  %30 = load i32, ptr %3, align 4
  call void @_ZN9VectorSet3setEj(ptr noundef nonnull align 8 dereferenceable(32) %29, i32 noundef %30)
  br label %31

31:                                               ; preds = %28, %24
  %32 = call noundef ptr @_ZNK16BCEscapeAnalyzer10methodDataEv(ptr noundef nonnull align 8 dereferenceable(196) %4)
  %33 = load i32, ptr %3, align 4
  %34 = call noundef i32 @_ZNK12ciMethodData12arg_modifiedEi(ptr noundef nonnull align 8 dereferenceable(176) %32, i32 noundef %33)
  %35 = getelementptr inbounds %class.BCEscapeAnalyzer, ptr %4, i32 0, i32 10
  %36 = load ptr, ptr %35, align 8
  %37 = load i32, ptr %3, align 4
  %38 = sext i32 %37 to i64
  %39 = getelementptr inbounds i32, ptr %36, i64 %38
  store i32 %34, ptr %39, align 4
  br label %40

40:                                               ; preds = %31
  %41 = load i32, ptr %3, align 4
  %42 = add nsw i32 %41, 1
  store i32 %42, ptr %3, align 4
  br label %5, !llvm.loop !45

43:                                               ; preds = %5
  %44 = call noundef ptr @_ZNK16BCEscapeAnalyzer10methodDataEv(ptr noundef nonnull align 8 dereferenceable(196) %4)
  %45 = call noundef zeroext i1 @_ZNK12ciMethodData9eflag_setEN10MethodData10EscapeFlagE(ptr noundef nonnull align 8 dereferenceable(176) %44, i32 noundef 2)
  %46 = getelementptr inbounds %class.BCEscapeAnalyzer, ptr %4, i32 0, i32 11
  %47 = zext i1 %45 to i8
  store i8 %47, ptr %46, align 8
  %48 = call noundef ptr @_ZNK16BCEscapeAnalyzer10methodDataEv(ptr noundef nonnull align 8 dereferenceable(196) %4)
  %49 = call noundef zeroext i1 @_ZNK12ciMethodData9eflag_setEN10MethodData10EscapeFlagE(ptr noundef nonnull align 8 dereferenceable(176) %48, i32 noundef 4)
  %50 = getelementptr inbounds %class.BCEscapeAnalyzer, ptr %4, i32 0, i32 12
  %51 = zext i1 %49 to i8
  store i8 %51, ptr %50, align 1
  %52 = call noundef ptr @_ZNK16BCEscapeAnalyzer10methodDataEv(ptr noundef nonnull align 8 dereferenceable(196) %4)
  %53 = call noundef zeroext i1 @_ZNK12ciMethodData9eflag_setEN10MethodData10EscapeFlagE(ptr noundef nonnull align 8 dereferenceable(176) %52, i32 noundef 8)
  %54 = getelementptr inbounds %class.BCEscapeAnalyzer, ptr %4, i32 0, i32 13
  %55 = zext i1 %53 to i8
  store i8 %55, ptr %54, align 2
  %56 = call noundef ptr @_ZNK16BCEscapeAnalyzer10methodDataEv(ptr noundef nonnull align 8 dereferenceable(196) %4)
  %57 = call noundef zeroext i1 @_ZNK12ciMethodData9eflag_setEN10MethodData10EscapeFlagE(ptr noundef nonnull align 8 dereferenceable(176) %56, i32 noundef 16)
  %58 = getelementptr inbounds %class.BCEscapeAnalyzer, ptr %4, i32 0, i32 14
  %59 = zext i1 %57 to i8
  store i8 %59, ptr %58, align 1
  ret void
}