; Function Attrs: mustprogress nounwind uwtable
define hidden void @_ZN16BCEscapeAnalyzer16read_escape_infoEv(ptr noundef nonnull align 8 dereferenceable(196) %0) local_unnamed_addr #0 align 2 {
  %2 = getelementptr inbounds i8, ptr %0, i64 32
  %3 = load i32, ptr %2, align 8
  %4 = icmp sgt i32 %3, 0
  br i1 %4, label %.lr.ph, label %._crit_edge

.lr.ph:                                           ; preds = %1
  %5 = getelementptr inbounds i8, ptr %0, i64 24
  %6 = getelementptr inbounds i8, ptr %0, i64 40
  %7 = getelementptr inbounds i8, ptr %0, i64 48
  %8 = getelementptr inbounds i8, ptr %0, i64 72
  %9 = getelementptr inbounds i8, ptr %0, i64 80
  %10 = getelementptr inbounds i8, ptr %0, i64 104
  %11 = getelementptr inbounds i8, ptr %0, i64 112
  %12 = getelementptr inbounds i8, ptr %0, i64 136
  br label %13

13:                                               ; preds = %.lr.ph, %56
  %indvars.iv = phi i64 [ 0, %.lr.ph ], [ %indvars.iv.next, %56 ]
  %14 = load ptr, ptr %5, align 8
  %15 = trunc nuw nsw i64 %indvars.iv to i32
  %16 = tail call noundef zeroext i1 @_ZNK12ciMethodData12is_arg_localEi(ptr noundef nonnull align 8 dereferenceable(176) %14, i32 noundef %15) #12
  br i1 %16, label %17, label %28

17:                                               ; preds = %13
  %18 = lshr i32 %15, 5
  %19 = load i32, ptr %6, align 8
  %.not.i = icmp ult i32 %18, %19
  br i1 %.not.i, label %_ZN9VectorSet3setEj.exit, label %20

20:                                               ; preds = %17
  tail call void @_ZN9VectorSet4growEj(ptr noundef nonnull align 8 dereferenceable(32) %6, i32 noundef %18) #12
  br label %_ZN9VectorSet3setEj.exit

_ZN9VectorSet3setEj.exit:                         ; preds = %17, %20
  %21 = and i32 %15, 31
  %22 = shl nuw i32 1, %21
  %23 = load ptr, ptr %7, align 8
  %24 = zext nneg i32 %18 to i64
  %25 = getelementptr inbounds i32, ptr %23, i64 %24
  %26 = load i32, ptr %25, align 4
  %27 = or i32 %26, %22
  store i32 %27, ptr %25, align 4
  br label %28

28:                                               ; preds = %_ZN9VectorSet3setEj.exit, %13
  %29 = load ptr, ptr %5, align 8
  %30 = tail call noundef zeroext i1 @_ZNK12ciMethodData12is_arg_stackEi(ptr noundef nonnull align 8 dereferenceable(176) %29, i32 noundef %15) #12
  br i1 %30, label %31, label %42

31:                                               ; preds = %28
  %32 = lshr i32 %15, 5
  %33 = load i32, ptr %8, align 8
  %.not.i10 = icmp ult i32 %32, %33
  br i1 %.not.i10, label %_ZN9VectorSet3setEj.exit11, label %34

34:                                               ; preds = %31
  tail call void @_ZN9VectorSet4growEj(ptr noundef nonnull align 8 dereferenceable(32) %8, i32 noundef %32) #12
  br label %_ZN9VectorSet3setEj.exit11

_ZN9VectorSet3setEj.exit11:                       ; preds = %31, %34
  %35 = and i32 %15, 31
  %36 = shl nuw i32 1, %35
  %37 = load ptr, ptr %9, align 8
  %38 = zext nneg i32 %32 to i64
  %39 = getelementptr inbounds i32, ptr %37, i64 %38
  %40 = load i32, ptr %39, align 4
  %41 = or i32 %40, %36
  store i32 %41, ptr %39, align 4
  br label %42

42:                                               ; preds = %_ZN9VectorSet3setEj.exit11, %28
  %43 = load ptr, ptr %5, align 8
  %44 = tail call noundef zeroext i1 @_ZNK12ciMethodData15is_arg_returnedEi(ptr noundef nonnull align 8 dereferenceable(176) %43, i32 noundef %15) #12
  br i1 %44, label %45, label %56

45:                                               ; preds = %42
  %46 = lshr i32 %15, 5
  %47 = load i32, ptr %10, align 8
  %.not.i12 = icmp ult i32 %46, %47
  br i1 %.not.i12, label %_ZN9VectorSet3setEj.exit13, label %48

48:                                               ; preds = %45
  tail call void @_ZN9VectorSet4growEj(ptr noundef nonnull align 8 dereferenceable(32) %10, i32 noundef %46) #12
  br label %_ZN9VectorSet3setEj.exit13

_ZN9VectorSet3setEj.exit13:                       ; preds = %45, %48
  %49 = and i32 %15, 31
  %50 = shl nuw i32 1, %49
  %51 = load ptr, ptr %11, align 8
  %52 = zext nneg i32 %46 to i64
  %53 = getelementptr inbounds i32, ptr %51, i64 %52
  %54 = load i32, ptr %53, align 4
  %55 = or i32 %54, %50
  store i32 %55, ptr %53, align 4
  br label %56

56:                                               ; preds = %_ZN9VectorSet3setEj.exit13, %42
  %57 = load ptr, ptr %5, align 8
  %58 = tail call noundef i32 @_ZNK12ciMethodData12arg_modifiedEi(ptr noundef nonnull align 8 dereferenceable(176) %57, i32 noundef %15) #12
  %59 = load ptr, ptr %12, align 8
  %60 = getelementptr inbounds i32, ptr %59, i64 %indvars.iv
  store i32 %58, ptr %60, align 4
  %indvars.iv.next = add nuw nsw i64 %indvars.iv, 1
  %61 = load i32, ptr %2, align 8
  %62 = sext i32 %61 to i64
  %63 = icmp slt i64 %indvars.iv.next, %62
  br i1 %63, label %13, label %._crit_edge, !llvm.loop !47

._crit_edge:                                      ; preds = %56, %1
  %64 = getelementptr inbounds i8, ptr %0, i64 24
  %65 = load ptr, ptr %64, align 8
  %66 = tail call noundef zeroext i1 @_ZNK12ciMethodData9eflag_setEN10MethodData10EscapeFlagE(ptr noundef nonnull align 8 dereferenceable(176) %65, i32 noundef 2) #12
  %67 = getelementptr inbounds i8, ptr %0, i64 144
  %68 = zext i1 %66 to i8
  store i8 %68, ptr %67, align 8
  %69 = load ptr, ptr %64, align 8
  %70 = tail call noundef zeroext i1 @_ZNK12ciMethodData9eflag_setEN10MethodData10EscapeFlagE(ptr noundef nonnull align 8 dereferenceable(176) %69, i32 noundef 4) #12
  %71 = getelementptr inbounds i8, ptr %0, i64 145
  %72 = zext i1 %70 to i8
  store i8 %72, ptr %71, align 1
  %73 = load ptr, ptr %64, align 8
  %74 = tail call noundef zeroext i1 @_ZNK12ciMethodData9eflag_setEN10MethodData10EscapeFlagE(ptr noundef nonnull align 8 dereferenceable(176) %73, i32 noundef 8) #12
  %75 = getelementptr inbounds i8, ptr %0, i64 146
  %76 = zext i1 %74 to i8
  store i8 %76, ptr %75, align 2
  %77 = load ptr, ptr %64, align 8
  %78 = tail call noundef zeroext i1 @_ZNK12ciMethodData9eflag_setEN10MethodData10EscapeFlagE(ptr noundef nonnull align 8 dereferenceable(176) %77, i32 noundef 16) #12
  %79 = getelementptr inbounds i8, ptr %0, i64 147
  %80 = zext i1 %78 to i8
  store i8 %80, ptr %79, align 1
  ret void
}